; Function Attrs: mustprogress nounwind uwtable
define hidden void @_ZN5Parse6do_retEv(ptr noundef nonnull align 8 dereferenceable(352) %0) local_unnamed_addr #0 align 2 {
  %2 = getelementptr inbounds i8, ptr %0, i64 256
  %3 = load ptr, ptr %2, align 8
  %4 = getelementptr inbounds i8, ptr %3, i64 72
  %5 = load ptr, ptr %4, align 8
  %6 = load ptr, ptr %5, align 8
  %7 = getelementptr inbounds i8, ptr %6, i64 8
  %8 = load i32, ptr %7, align 8
  %9 = getelementptr inbounds i8, ptr %6, i64 12
  %10 = load i32, ptr %9, align 4
  %11 = add nsw i32 %10, 1
  store i32 %11, ptr %9, align 4
  %12 = sub nsw i32 %8, %10
  tail call void @_ZN5Parse12merge_commonEPNS_5BlockEi(ptr noundef nonnull align 8 dereferenceable(352) %0, ptr noundef nonnull %6, i32 noundef %12) #15
  ret void
}